target datalayout = "e-m:e-p270:32:32-p271:32:32-p272:64:64-i64:64-i128:128-f80:128-n8:16:32:64-S128"
target triple = "x86_64-pc-linux-gnu"

%struct.FunctionCallInfoBaseData = type { ptr, ptr, ptr, i32, i8, i16, [0 x %struct.NullableDatum] }
%struct.NullableDatum = type { i64, i8 }

@.str.2 = private unnamed_addr constant [12 x i8] c"jsonfuncs.c\00", align 1
@.str.30 = private unnamed_addr constant [98 x i8] c"null_value_treatment must be \22delete_key\22, \22return_target\22, \22use_json_null\22, or \22raise_exception\22\00", align 1
@__func__.jsonb_set_lax = private unnamed_addr constant [14 x i8] c"jsonb_set_lax\00", align 1
@.str.31 = private unnamed_addr constant [16 x i8] c"raise_exception\00", align 1
@.str.32 = private unnamed_addr constant [28 x i8] c"JSON value must not be null\00", align 1
@.str.33 = private unnamed_addr constant [72 x i8] c"Exception was raised because null_value_treatment is \22raise_exception\22.\00", align 1
@.str.34 = private unnamed_addr constant [100 x i8] c"To avoid, either change the null_value_treatment argument or ensure that an SQL NULL is not passed.\00", align 1
@.str.35 = private unnamed_addr constant [14 x i8] c"use_json_null\00", align 1
@.str.36 = private unnamed_addr constant [5 x i8] c"null\00", align 1
@.str.37 = private unnamed_addr constant [11 x i8] c"delete_key\00", align 1
@.str.38 = private unnamed_addr constant [14 x i8] c"return_target\00", align 1

; Function Attrs: inlinehint nounwind uwtable
define internal i64 @PointerGetDatum(ptr noundef %0) #3 {
  %2 = alloca ptr, align 8
  store ptr %0, ptr %2, align 8
  %3 = load ptr, ptr %2, align 8
  %4 = ptrtoint ptr %3 to i64
  ret i64 %4
}

; Function Attrs: inlinehint nounwind uwtable
define internal ptr @DatumGetJsonbP(i64 noundef %0) #3 {
  %2 = alloca i64, align 8
  store i64 %0, ptr %2, align 8
  %3 = load i64, ptr %2, align 8
  %4 = call ptr @DatumGetPointer(i64 noundef %3)
  %5 = call ptr @pg_detoast_datum(ptr noundef %4)
  ret ptr %5
}

; Function Attrs: inlinehint nounwind uwtable
define internal i64 @CStringGetDatum(ptr noundef %0) #3 {
  %2 = alloca ptr, align 8
  store ptr %0, ptr %2, align 8
  %3 = load ptr, ptr %2, align 8
  %4 = call i64 @PointerGetDatum(ptr noundef %3)
  ret i64 %4
}

; Function Attrs: inlinehint nounwind uwtable
define internal ptr @DatumGetPointer(i64 noundef %0) #3 {
  %2 = alloca i64, align 8
  store i64 %0, ptr %2, align 8
  %3 = load i64, ptr %2, align 8
  %4 = inttoptr i64 %3 to ptr
  ret ptr %4
}

; Function Attrs: nounwind uwtable
define dso_local i64 @jsonb_set_lax(ptr noundef %0) #0 {
  %2 = alloca i64, align 8
  %3 = alloca ptr, align 8
  %4 = alloca ptr, align 8
  %5 = alloca ptr, align 8
  %6 = alloca i32, align 4
  %7 = alloca i64, align 8
  %8 = alloca ptr, align 8
  store ptr %0, ptr %3, align 8
  call void @llvm.lifetime.start.p0(i64 8, ptr %4) #10
  call void @llvm.lifetime.start.p0(i64 8, ptr %5) #10
  %9 = load ptr, ptr %3, align 8
  %10 = getelementptr inbounds nuw %struct.FunctionCallInfoBaseData, ptr %9, i32 0, i32 6
  %11 = getelementptr inbounds [0 x %struct.NullableDatum], ptr %10, i64 0, i64 0
  %12 = getelementptr inbounds nuw %struct.NullableDatum, ptr %11, i32 0, i32 1
  %13 = load i8, ptr %12, align 8, !range !4, !noundef !5
  %14 = trunc i8 %13 to i1
  br i1 %14, label %29, label %15

15:                                               ; preds = %1
  %16 = load ptr, ptr %3, align 8
  %17 = getelementptr inbounds nuw %struct.FunctionCallInfoBaseData, ptr %16, i32 0, i32 6
  %18 = getelementptr inbounds [0 x %struct.NullableDatum], ptr %17, i64 0, i64 1
  %19 = getelementptr inbounds nuw %struct.NullableDatum, ptr %18, i32 0, i32 1
  %20 = load i8, ptr %19, align 8, !range !4, !noundef !5
  %21 = trunc i8 %20 to i1
  br i1 %21, label %29, label %22

22:                                               ; preds = %15
  %23 = load ptr, ptr %3, align 8
  %24 = getelementptr inbounds nuw %struct.FunctionCallInfoBaseData, ptr %23, i32 0, i32 6
  %25 = getelementptr inbounds [0 x %struct.NullableDatum], ptr %24, i64 0, i64 3
  %26 = getelementptr inbounds nuw %struct.NullableDatum, ptr %25, i32 0, i32 1
  %27 = load i8, ptr %26, align 8, !range !4, !noundef !5
  %28 = trunc i8 %27 to i1
  br i1 %28, label %29, label %35

29:                                               ; preds = %22, %15, %1
  br label %30

30:                                               ; preds = %29
  %31 = load ptr, ptr %3, align 8
  %32 = getelementptr inbounds nuw %struct.FunctionCallInfoBaseData, ptr %31, i32 0, i32 4
  store i8 1, ptr %32, align 4
  store i64 0, ptr %2, align 8
  store i32 1, ptr %6, align 4
  br label %141

33:                                               ; No predecessors!
  br label %34

34:                                               ; preds = %33
  br label %35

35:                                               ; preds = %34, %22
  %36 = load ptr, ptr %3, align 8
  %37 = getelementptr inbounds nuw %struct.FunctionCallInfoBaseData, ptr %36, i32 0, i32 6
  %38 = getelementptr inbounds [0 x %struct.NullableDatum], ptr %37, i64 0, i64 4
  %39 = getelementptr inbounds nuw %struct.NullableDatum, ptr %38, i32 0, i32 1
  %40 = load i8, ptr %39, align 8, !range !4, !noundef !5
  %41 = trunc i8 %40 to i1
  br i1 %41, label %42, label %54

42:                                               ; preds = %35
  br label %43

43:                                               ; preds = %42
  br i1 true, label %44, label %46

44:                                               ; preds = %43
  %45 = call zeroext i1 @errstart_cold(i32 noundef 21, ptr noundef null) #11
  br i1 %45, label %48, label %51

46:                                               ; preds = %43
  %47 = call zeroext i1 @errstart(i32 noundef 21, ptr noundef null)
  br i1 %47, label %48, label %51

48:                                               ; preds = %46, %44
  %49 = call i32 @errcode(i32 noundef 50856066)
  %50 = call i32 (ptr, ...) @errmsg(ptr noundef @.str.30)
  call void @errfinish(ptr noundef @.str.2, i32 noundef 4910, ptr noundef @__func__.jsonb_set_lax)
  br label %51

51:                                               ; preds = %48, %46, %44
  unreachable

52:                                               ; No predecessors!
  br label %53

53:                                               ; preds = %52
  br label %54

54:                                               ; preds = %53, %35
  %55 = load ptr, ptr %3, align 8
  %56 = getelementptr inbounds nuw %struct.FunctionCallInfoBaseData, ptr %55, i32 0, i32 6
  %57 = getelementptr inbounds [0 x %struct.NullableDatum], ptr %56, i64 0, i64 2
  %58 = getelementptr inbounds nuw %struct.NullableDatum, ptr %57, i32 0, i32 1
  %59 = load i8, ptr %58, align 8, !range !4, !noundef !5
  %60 = trunc i8 %59 to i1
  br i1 %60, label %64, label %61

61:                                               ; preds = %54
  %62 = load ptr, ptr %3, align 8
  %63 = call i64 @jsonb_set(ptr noundef %62)
  store i64 %63, ptr %2, align 8
  store i32 1, ptr %6, align 4
  br label %141

64:                                               ; preds = %54
  %65 = load ptr, ptr %3, align 8
  %66 = getelementptr inbounds nuw %struct.FunctionCallInfoBaseData, ptr %65, i32 0, i32 6
  %67 = getelementptr inbounds [0 x %struct.NullableDatum], ptr %66, i64 0, i64 4
  %68 = getelementptr inbounds nuw %struct.NullableDatum, ptr %67, i32 0, i32 0
  %69 = load i64, ptr %68, align 8
  %70 = call ptr @DatumGetPointer(i64 noundef %69)
  %71 = call ptr @pg_detoast_datum(ptr noundef %70)
  store ptr %71, ptr %4, align 8
  %72 = load ptr, ptr %4, align 8
  %73 = call ptr @text_to_cstring(ptr noundef %72)
  store ptr %73, ptr %5, align 8
  %74 = load ptr, ptr %5, align 8
  %75 = call i32 @strcmp(ptr noundef %74, ptr noundef @.str.31) #13
  %76 = icmp eq i32 %75, 0
  br i1 %76, label %77, label %91

77:                                               ; preds = %64
  br label %78

78:                                               ; preds = %77
  br i1 true, label %79, label %81

79:                                               ; preds = %78
  %80 = call zeroext i1 @errstart_cold(i32 noundef 21, ptr noundef null) #11
  br i1 %80, label %83, label %88

81:                                               ; preds = %78
  %82 = call zeroext i1 @errstart(i32 noundef 21, ptr noundef null)
  br i1 %82, label %83, label %88

83:                                               ; preds = %81, %79
  %84 = call i32 @errcode(i32 noundef 67108994)
  %85 = call i32 (ptr, ...) @errmsg(ptr noundef @.str.32)
  %86 = call i32 (ptr, ...) @errdetail(ptr noundef @.str.33)
  %87 = call i32 (ptr, ...) @errhint(ptr noundef @.str.34)
  call void @errfinish(ptr noundef @.str.2, i32 noundef 4925, ptr noundef @__func__.jsonb_set_lax)
  br label %88

88:                                               ; preds = %83, %81, %79
  unreachable

89:                                               ; No predecessors!
  br label %90

90:                                               ; preds = %89
  store i64 0, ptr %2, align 8
  store i32 1, ptr %6, align 4
  br label %141

91:                                               ; preds = %64
  %92 = load ptr, ptr %5, align 8
  %93 = call i32 @strcmp(ptr noundef %92, ptr noundef @.str.35) #13
  %94 = icmp eq i32 %93, 0
  br i1 %94, label %95, label %109

95:                                               ; preds = %91
  call void @llvm.lifetime.start.p0(i64 8, ptr %7) #10
  %96 = call i64 @CStringGetDatum(ptr noundef @.str.36)
  %97 = call i64 @DirectFunctionCall1Coll(ptr noundef @jsonb_in, i32 noundef 0, i64 noundef %96)
  store i64 %97, ptr %7, align 8
  %98 = load i64, ptr %7, align 8
  %99 = load ptr, ptr %3, align 8
  %100 = getelementptr inbounds nuw %struct.FunctionCallInfoBaseData, ptr %99, i32 0, i32 6
  %101 = getelementptr inbounds [0 x %struct.NullableDatum], ptr %100, i64 0, i64 2
  %102 = getelementptr inbounds nuw %struct.NullableDatum, ptr %101, i32 0, i32 0
  store i64 %98, ptr %102, align 8
  %103 = load ptr, ptr %3, align 8
  %104 = getelementptr inbounds nuw %struct.FunctionCallInfoBaseData, ptr %103, i32 0, i32 6
  %105 = getelementptr inbounds [0 x %struct.NullableDatum], ptr %104, i64 0, i64 2
  %106 = getelementptr inbounds nuw %struct.NullableDatum, ptr %105, i32 0, i32 1
  store i8 0, ptr %106, align 8
  %107 = load ptr, ptr %3, align 8
  %108 = call i64 @jsonb_set(ptr noundef %107)
  store i64 %108, ptr %2, align 8
  store i32 1, ptr %6, align 4
  call void @llvm.lifetime.end.p0(i64 8, ptr %7) #10
  br label %141

109:                                              ; preds = %91
  %110 = load ptr, ptr %5, align 8
  %111 = call i32 @strcmp(ptr noundef %110, ptr noundef @.str.37) #13
  %112 = icmp eq i32 %111, 0
  br i1 %112, label %113, label %116

113:                                              ; preds = %109
  %114 = load ptr, ptr %3, align 8
  %115 = call i64 @jsonb_delete_path(ptr noundef %114)
  store i64 %115, ptr %2, align 8
  store i32 1, ptr %6, align 4
  br label %141

116:                                              ; preds = %109
  %117 = load ptr, ptr %5, align 8
  %118 = call i32 @strcmp(ptr noundef %117, ptr noundef @.str.38) #13
  %119 = icmp eq i32 %118, 0
  br i1 %119, label %120, label %129

120:                                              ; preds = %116
  call void @llvm.lifetime.start.p0(i64 8, ptr %8) #10
  %121 = load ptr, ptr %3, align 8
  %122 = getelementptr inbounds nuw %struct.FunctionCallInfoBaseData, ptr %121, i32 0, i32 6
  %123 = getelementptr inbounds [0 x %struct.NullableDatum], ptr %122, i64 0, i64 0
  %124 = getelementptr inbounds nuw %struct.NullableDatum, ptr %123, i32 0, i32 0
  %125 = load i64, ptr %124, align 8
  %126 = call ptr @DatumGetJsonbP(i64 noundef %125)
  store ptr %126, ptr %8, align 8
  %127 = load ptr, ptr %8, align 8
  %128 = call i64 @PointerGetDatum(ptr noundef %127)
  store i64 %128, ptr %2, align 8
  store i32 1, ptr %6, align 4
  call void @llvm.lifetime.end.p0(i64 8, ptr %8) #10
  br label %141

129:                                              ; preds = %116
  br label %130

130:                                              ; preds = %129
  br i1 true, label %131, label %133

131:                                              ; preds = %130
  %132 = call zeroext i1 @errstart_cold(i32 noundef 21, ptr noundef null) #11
  br i1 %132, label %135, label %138

133:                                              ; preds = %130
  %134 = call zeroext i1 @errstart(i32 noundef 21, ptr noundef null)
  br i1 %134, label %135, label %138

135:                                              ; preds = %133, %131
  %136 = call i32 @errcode(i32 noundef 50856066)
  %137 = call i32 (ptr, ...) @errmsg(ptr noundef @.str.30)
  call void @errfinish(ptr noundef @.str.2, i32 noundef 4952, ptr noundef @__func__.jsonb_set_lax)
  br label %138

138:                                              ; preds = %135, %133, %131
  unreachable

139:                                              ; No predecessors!
  br label %140

140:                                              ; preds = %139
  store i64 0, ptr %2, align 8
  store i32 1, ptr %6, align 4
  br label %141

141:                                              ; preds = %140, %120, %113, %95, %90, %61, %30
  call void @llvm.lifetime.end.p0(i64 8, ptr %5) #10
  call void @llvm.lifetime.end.p0(i64 8, ptr %4) #10
  %142 = load i64, ptr %2, align 8
  ret i64 %142
}