; Function Attrs: nounwind uwtable
define dso_local i64 @jsonb_set_lax(ptr noundef captures(none) %0) local_unnamed_addr #0 {
  %2 = getelementptr inbounds nuw i8, ptr %0, i64 32
  %3 = getelementptr inbounds nuw i8, ptr %0, i64 40
  %4 = load i8, ptr %3, align 8, !range !4, !noundef !5
  %5 = trunc nuw i8 %4 to i1
  br i1 %5, label %14, label %6

6:                                                ; preds = %1
  %7 = getelementptr inbounds nuw i8, ptr %0, i64 56
  %8 = load i8, ptr %7, align 8, !range !4, !noundef !5
  %9 = trunc nuw i8 %8 to i1
  br i1 %9, label %14, label %10

10:                                               ; preds = %6
  %11 = getelementptr inbounds nuw i8, ptr %0, i64 88
  %12 = load i8, ptr %11, align 8, !range !4, !noundef !5
  %13 = trunc nuw i8 %12 to i1
  br i1 %13, label %14, label %16

14:                                               ; preds = %1, %6, %10
  %15 = getelementptr inbounds nuw i8, ptr %0, i64 28
  store i8 1, ptr %15, align 4
  br label %68

16:                                               ; preds = %10
  %17 = getelementptr inbounds nuw i8, ptr %0, i64 96
  %18 = getelementptr inbounds nuw i8, ptr %0, i64 104
  %19 = load i8, ptr %18, align 8, !range !4, !noundef !5
  %20 = trunc nuw i8 %19 to i1
  br i1 %20, label %21, label %25

21:                                               ; preds = %16
  %22 = tail call zeroext i1 @errstart_cold(i32 noundef 21, ptr noundef null) #16
  tail call void @llvm.assume(i1 %22)
  %23 = tail call i32 @errcode(i32 noundef 50856066) #15
  %24 = tail call i32 (ptr, ...) @errmsg(ptr noundef nonnull @.str.30) #15
  tail call void @errfinish(ptr noundef nonnull @.str.2, i32 noundef 4910, ptr noundef nonnull @__func__.jsonb_set_lax) #15
  unreachable

25:                                               ; preds = %16
  %26 = getelementptr inbounds nuw i8, ptr %0, i64 64
  %27 = getelementptr inbounds nuw i8, ptr %0, i64 72
  %28 = load i8, ptr %27, align 8, !range !4, !noundef !5
  %29 = trunc nuw i8 %28 to i1
  br i1 %29, label %32, label %30

30:                                               ; preds = %25
  %31 = tail call i64 @jsonb_set(ptr noundef nonnull %0)
  br label %68

32:                                               ; preds = %25
  %33 = load i64, ptr %17, align 8
  %34 = inttoptr i64 %33 to ptr
  %35 = tail call ptr @pg_detoast_datum(ptr noundef %34) #15
  %36 = tail call ptr @text_to_cstring(ptr noundef %35) #15
  %37 = tail call i32 @strcmp(ptr noundef nonnull dereferenceable(1) %36, ptr noundef nonnull dereferenceable(16) @.str.31) #18
  %38 = icmp eq i32 %37, 0
  br i1 %38, label %39, label %45

39:                                               ; preds = %32
  %40 = tail call zeroext i1 @errstart_cold(i32 noundef 21, ptr noundef null) #16
  tail call void @llvm.assume(i1 %40)
  %41 = tail call i32 @errcode(i32 noundef 67108994) #15
  %42 = tail call i32 (ptr, ...) @errmsg(ptr noundef nonnull @.str.32) #15
  %43 = tail call i32 (ptr, ...) @errdetail(ptr noundef nonnull @.str.33) #15
  %44 = tail call i32 (ptr, ...) @errhint(ptr noundef nonnull @.str.34) #15
  tail call void @errfinish(ptr noundef nonnull @.str.2, i32 noundef 4925, ptr noundef nonnull @__func__.jsonb_set_lax) #15
  unreachable

45:                                               ; preds = %32
  %46 = tail call i32 @strcmp(ptr noundef nonnull dereferenceable(1) %36, ptr noundef nonnull dereferenceable(14) @.str.35) #18
  %47 = icmp eq i32 %46, 0
  br i1 %47, label %48, label %51

48:                                               ; preds = %45
  %49 = tail call i64 @DirectFunctionCall1Coll(ptr noundef nonnull @jsonb_in, i32 noundef 0, i64 noundef ptrtoint (ptr @.str.36 to i64)) #15
  store i64 %49, ptr %26, align 8
  store i8 0, ptr %27, align 8
  %50 = tail call i64 @jsonb_set(ptr noundef nonnull %0)
  br label %68

51:                                               ; preds = %45
  %52 = tail call i32 @strcmp(ptr noundef nonnull dereferenceable(1) %36, ptr noundef nonnull dereferenceable(11) @.str.37) #18
  %53 = icmp eq i32 %52, 0
  br i1 %53, label %54, label %56

54:                                               ; preds = %51
  %55 = tail call i64 @jsonb_delete_path(ptr noundef nonnull %0)
  br label %68

56:                                               ; preds = %51
  %57 = tail call i32 @strcmp(ptr noundef nonnull dereferenceable(1) %36, ptr noundef nonnull dereferenceable(14) @.str.38) #18
  %58 = icmp eq i32 %57, 0
  br i1 %58, label %59, label %64

59:                                               ; preds = %56
  %60 = load i64, ptr %2, align 8
  %61 = inttoptr i64 %60 to ptr
  %62 = tail call ptr @pg_detoast_datum(ptr noundef %61) #15
  %63 = ptrtoint ptr %62 to i64
  br label %68

64:                                               ; preds = %56
  %65 = tail call zeroext i1 @errstart_cold(i32 noundef 21, ptr noundef null) #16
  tail call void @llvm.assume(i1 %65)
  %66 = tail call i32 @errcode(i32 noundef 50856066) #15
  %67 = tail call i32 (ptr, ...) @errmsg(ptr noundef nonnull @.str.30) #15
  tail call void @errfinish(ptr noundef nonnull @.str.2, i32 noundef 4952, ptr noundef nonnull @__func__.jsonb_set_lax) #15
  unreachable

68:                                               ; preds = %59, %54, %48, %30, %14
  %.0 = phi i64 [ 0, %14 ], [ %50, %48 ], [ %55, %54 ], [ %63, %59 ], [ %31, %30 ]
  ret i64 %.0
}